; Function Attrs: mustprogress uwtable
define internal noundef range(i32 0, 3) i32 @_ZL27AsyncPrivateKeySignCompleteP6ssl_stPhPmm(ptr noundef %0, ptr noundef writeonly captures(none) %1, ptr noundef writeonly captures(none) %2, i64 noundef %3) #10 personality ptr @__gxx_personality_v0 {
  %5 = load i32, ptr @_ZL13g_state_index, align 4, !tbaa !6
  %6 = tail call noundef ptr @SSL_get_ex_data(ptr noundef %0, i32 noundef %5)
  %7 = getelementptr inbounds nuw i8, ptr %6, i64 88
  %8 = load ptr, ptr %7, align 8, !tbaa !32
  %9 = getelementptr inbounds nuw i8, ptr %6, i64 96
  %10 = load ptr, ptr %9, align 8, !tbaa !32
  %11 = icmp eq ptr %8, %10
  br i1 %11, label %12, label %15

12:                                               ; preds = %4
  %13 = load ptr, ptr @stderr, align 8, !tbaa !33
  %14 = tail call i64 @fwrite(ptr nonnull @.str.11, i64 62, i64 1, ptr %13) #32
  tail call void @abort() #30
  unreachable

15:                                               ; preds = %4
  %16 = getelementptr inbounds nuw i8, ptr %6, i64 112
  %17 = load i32, ptr %16, align 8, !tbaa !185
  %18 = icmp ult i32 %17, 2
  br i1 %18, label %34, label %19

19:                                               ; preds = %15
  %20 = ptrtoint ptr %10 to i64
  %21 = ptrtoint ptr %8 to i64
  %22 = sub i64 %20, %21
  %23 = icmp ult i64 %3, %22
  br i1 %23, label %24, label %27

24:                                               ; preds = %19
  %25 = load ptr, ptr @stderr, align 8, !tbaa !33
  %26 = tail call i64 @fwrite(ptr nonnull @.str.12, i64 25, i64 1, ptr %25) #32
  br label %34

27:                                               ; preds = %19
  tail call void @llvm.memcpy.p0.p0.i64(ptr align 1 %1, ptr align 1 %8, i64 %22, i1 false)
  %28 = load ptr, ptr %9, align 8, !tbaa !141
  %29 = load ptr, ptr %7, align 8, !tbaa !140
  %30 = ptrtoint ptr %28 to i64
  %31 = ptrtoint ptr %29 to i64
  %32 = sub i64 %30, %31
  store i64 %32, ptr %2, align 8, !tbaa !144
  %.not.i.i = icmp eq ptr %28, %29
  br i1 %.not.i.i, label %_ZNSt6vectorIhSaIhEE5clearEv.exit, label %33

33:                                               ; preds = %27
  store ptr %29, ptr %9, align 8, !tbaa !141
  br label %_ZNSt6vectorIhSaIhEE5clearEv.exit

_ZNSt6vectorIhSaIhEE5clearEv.exit:                ; preds = %27, %33
  store i32 0, ptr %16, align 8, !tbaa !185
  br label %34

34:                                               ; preds = %15, %_ZNSt6vectorIhSaIhEE5clearEv.exit, %24
  %.0 = phi i32 [ 2, %24 ], [ 0, %_ZNSt6vectorIhSaIhEE5clearEv.exit ], [ 1, %15 ]
  ret i32 %.0
}